target datalayout = "e-m:e-p270:32:32-p271:32:32-p272:64:64-i64:64-i128:128-f80:128-n8:16:32:64-S128"
target triple = "x86_64-pc-linux-gnu"

%struct.ssl_st = type { i32, i16, i16, ptr, ptr, ptr, ptr, ptr, i32, i32, ptr, ptr, i32, i32, ptr, ptr, ptr, ptr, ptr, ptr, ptr, ptr, i32, i32, [32 x i8], ptr, ptr, ptr, ptr, ptr, ptr, ptr, i64, %struct.crypto_ex_data_st, ptr, i32, i32, i32, i32, i16, ptr, i32, i64, ptr, ptr, ptr, ptr, ptr, ptr, i32, i32, ptr, ptr, i8, i8, i32 }
%struct.crypto_ex_data_st = type { ptr }
%struct.ssl_protocol_method_st = type { i8, ptr, ptr, ptr, ptr, ptr, ptr, ptr, ptr, ptr, ptr, ptr, i32, ptr, ptr }
%struct.buf_mem_st = type { i64, ptr, i64 }

@.str = private unnamed_addr constant [117 x i8] c"generated/home/dtcxzyw/WorkSpace/Projects/compilers/llvm-opt-benchmark/bench/libquic/libquic/boringssl/ssl/s3_srvr.c\00", align 1

; Function Attrs: nounwind uwtable
define hidden i32 @ssl3_send_certificate_request(ptr noundef %0) #0 {
  %2 = alloca i32, align 4
  %3 = alloca ptr, align 8
  %4 = alloca ptr, align 8
  %5 = alloca ptr, align 8
  %6 = alloca i64, align 8
  %7 = alloca i32, align 4
  %8 = alloca i32, align 4
  %9 = alloca i32, align 4
  %10 = alloca i32, align 4
  %11 = alloca ptr, align 8
  %12 = alloca ptr, align 8
  %13 = alloca ptr, align 8
  %14 = alloca ptr, align 8
  %15 = alloca i32, align 4
  store ptr %0, ptr %3, align 8, !tbaa !6
  call void @llvm.lifetime.start.p0(i64 8, ptr %4) #9
  call void @llvm.lifetime.start.p0(i64 8, ptr %5) #9
  call void @llvm.lifetime.start.p0(i64 8, ptr %6) #9
  call void @llvm.lifetime.start.p0(i64 4, ptr %7) #9
  call void @llvm.lifetime.start.p0(i64 4, ptr %8) #9
  call void @llvm.lifetime.start.p0(i64 4, ptr %9) #9
  call void @llvm.lifetime.start.p0(i64 4, ptr %10) #9
  call void @llvm.lifetime.start.p0(i64 8, ptr %11) #9
  store ptr null, ptr %11, align 8, !tbaa !151
  call void @llvm.lifetime.start.p0(i64 8, ptr %12) #9
  call void @llvm.lifetime.start.p0(i64 8, ptr %13) #9
  %16 = load ptr, ptr %3, align 8, !tbaa !6
  %17 = getelementptr inbounds nuw %struct.ssl_st, ptr %16, i32 0, i32 9
  %18 = load i32, ptr %17, align 4, !tbaa !48
  %19 = icmp eq i32 %18, 8544
  br i1 %19, label %20, label %207

20:                                               ; preds = %1
  %21 = load ptr, ptr %3, align 8, !tbaa !6
  %22 = getelementptr inbounds nuw %struct.ssl_st, ptr %21, i32 0, i32 10
  %23 = load ptr, ptr %22, align 8, !tbaa !49
  store ptr %23, ptr %13, align 8, !tbaa !11
  %24 = load ptr, ptr %3, align 8, !tbaa !6
  %25 = getelementptr inbounds nuw %struct.ssl_st, ptr %24, i32 0, i32 10
  %26 = load ptr, ptr %25, align 8, !tbaa !49
  %27 = getelementptr inbounds nuw %struct.buf_mem_st, ptr %26, i32 0, i32 1
  %28 = load ptr, ptr %27, align 8, !tbaa !95
  %29 = load ptr, ptr %3, align 8, !tbaa !6
  %30 = getelementptr inbounds nuw %struct.ssl_st, ptr %29, i32 0, i32 3
  %31 = load ptr, ptr %30, align 8, !tbaa !76
  %32 = getelementptr inbounds nuw %struct.ssl_protocol_method_st, ptr %31, i32 0, i32 12
  %33 = load i32, ptr %32, align 8, !tbaa !137
  %34 = zext i32 %33 to i64
  %35 = getelementptr inbounds nuw i8, ptr %28, i64 %34
  store ptr %35, ptr %4, align 8, !tbaa !89
  store ptr %35, ptr %5, align 8, !tbaa !89
  %36 = load ptr, ptr %4, align 8, !tbaa !89
  %37 = getelementptr inbounds nuw i8, ptr %36, i32 1
  store ptr %37, ptr %4, align 8, !tbaa !89
  %38 = load ptr, ptr %3, align 8, !tbaa !6
  %39 = load ptr, ptr %4, align 8, !tbaa !89
  %40 = call i32 @ssl3_get_req_cert_type(ptr noundef %38, ptr noundef %39)
  store i32 %40, ptr %10, align 4, !tbaa !14
  %41 = load i32, ptr %10, align 4, !tbaa !14
  %42 = trunc i32 %41 to i8
  %43 = load ptr, ptr %5, align 8, !tbaa !89
  %44 = getelementptr inbounds i8, ptr %43, i64 0
  store i8 %42, ptr %44, align 1, !tbaa !90
  %45 = load i32, ptr %10, align 4, !tbaa !14
  %46 = load ptr, ptr %4, align 8, !tbaa !89
  %47 = sext i32 %45 to i64
  %48 = getelementptr inbounds i8, ptr %46, i64 %47
  store ptr %48, ptr %4, align 8, !tbaa !89
  %49 = load i32, ptr %10, align 4, !tbaa !14
  %50 = add nsw i32 %49, 1
  store i32 %50, ptr %10, align 4, !tbaa !14
  %51 = load ptr, ptr %3, align 8, !tbaa !6
  %52 = call zeroext i16 @ssl3_protocol_version(ptr noundef %51)
  %53 = zext i16 %52 to i32
  %54 = icmp sge i32 %53, 771
  br i1 %54, label %55, label %84

55:                                               ; preds = %20
  call void @llvm.lifetime.start.p0(i64 8, ptr %14) #9
  %56 = load ptr, ptr %3, align 8, !tbaa !6
  %57 = call i64 @tls12_get_psigalgs(ptr noundef %56, ptr noundef %14)
  %58 = trunc i64 %57 to i32
  store i32 %58, ptr %8, align 4, !tbaa !14
  %59 = load i32, ptr %8, align 4, !tbaa !14
  %60 = ashr i32 %59, 8
  %61 = and i32 %60, 255
  %62 = trunc i32 %61 to i8
  %63 = load ptr, ptr %4, align 8, !tbaa !89
  %64 = getelementptr inbounds i8, ptr %63, i64 0
  store i8 %62, ptr %64, align 1, !tbaa !90
  %65 = load i32, ptr %8, align 4, !tbaa !14
  %66 = and i32 %65, 255
  %67 = trunc i32 %66 to i8
  %68 = load ptr, ptr %4, align 8, !tbaa !89
  %69 = getelementptr inbounds i8, ptr %68, i64 1
  store i8 %67, ptr %69, align 1, !tbaa !90
  %70 = load ptr, ptr %4, align 8, !tbaa !89
  %71 = getelementptr inbounds i8, ptr %70, i64 2
  store ptr %71, ptr %4, align 8, !tbaa !89
  %72 = load ptr, ptr %4, align 8, !tbaa !89
  %73 = load ptr, ptr %14, align 8, !tbaa !89
  %74 = load i32, ptr %8, align 4, !tbaa !14
  %75 = sext i32 %74 to i64
  call void @llvm.memcpy.p0.p0.i64(ptr align 1 %72, ptr align 1 %73, i64 %75, i1 false)
  %76 = load i32, ptr %8, align 4, !tbaa !14
  %77 = load ptr, ptr %4, align 8, !tbaa !89
  %78 = sext i32 %76 to i64
  %79 = getelementptr inbounds i8, ptr %77, i64 %78
  store ptr %79, ptr %4, align 8, !tbaa !89
  %80 = load i32, ptr %8, align 4, !tbaa !14
  %81 = add nsw i32 %80, 2
  %82 = load i32, ptr %10, align 4, !tbaa !14
  %83 = add nsw i32 %82, %81
  store i32 %83, ptr %10, align 4, !tbaa !14
  call void @llvm.lifetime.end.p0(i64 8, ptr %14) #9
  br label %84

84:                                               ; preds = %55, %20
  %85 = load i32, ptr %10, align 4, !tbaa !14
  store i32 %85, ptr %9, align 4, !tbaa !14
  %86 = load ptr, ptr %4, align 8, !tbaa !89
  %87 = getelementptr inbounds i8, ptr %86, i64 2
  store ptr %87, ptr %4, align 8, !tbaa !89
  %88 = load i32, ptr %10, align 4, !tbaa !14
  %89 = add nsw i32 %88, 2
  store i32 %89, ptr %10, align 4, !tbaa !14
  %90 = load ptr, ptr %3, align 8, !tbaa !6
  %91 = call ptr @SSL_get_client_CA_list(ptr noundef %90)
  store ptr %91, ptr %11, align 8, !tbaa !151
  store i32 0, ptr %8, align 4, !tbaa !14
  %92 = load ptr, ptr %11, align 8, !tbaa !151
  %93 = icmp ne ptr %92, null
  br i1 %93, label %94, label %164

94:                                               ; preds = %84
  store i64 0, ptr %6, align 8, !tbaa !91
  br label %95

95:                                               ; preds = %160, %94
  %96 = load i64, ptr %6, align 8, !tbaa !91
  %97 = load ptr, ptr %11, align 8, !tbaa !151
  %98 = call i64 @sk_num(ptr noundef %97)
  %99 = icmp ult i64 %96, %98
  br i1 %99, label %100, label %163

100:                                              ; preds = %95
  %101 = load ptr, ptr %11, align 8, !tbaa !151
  %102 = load i64, ptr %6, align 8, !tbaa !91
  %103 = call ptr @sk_value(ptr noundef %101, i64 noundef %102)
  store ptr %103, ptr %12, align 8, !tbaa !152
  %104 = load ptr, ptr %12, align 8, !tbaa !152
  %105 = call i32 @i2d_X509_NAME(ptr noundef %104, ptr noundef null)
  store i32 %105, ptr %7, align 4, !tbaa !14
  %106 = load ptr, ptr %13, align 8, !tbaa !11
  %107 = load ptr, ptr %3, align 8, !tbaa !6
  %108 = getelementptr inbounds nuw %struct.ssl_st, ptr %107, i32 0, i32 3
  %109 = load ptr, ptr %108, align 8, !tbaa !76
  %110 = getelementptr inbounds nuw %struct.ssl_protocol_method_st, ptr %109, i32 0, i32 12
  %111 = load i32, ptr %110, align 8, !tbaa !137
  %112 = load i32, ptr %10, align 4, !tbaa !14
  %113 = add i32 %111, %112
  %114 = load i32, ptr %7, align 4, !tbaa !14
  %115 = add i32 %113, %114
  %116 = add i32 %115, 2
  %117 = zext i32 %116 to i64
  %118 = call i64 @BUF_MEM_grow_clean(ptr noundef %106, i64 noundef %117)
  %119 = icmp ne i64 %118, 0
  br i1 %119, label %121, label %120

120:                                              ; preds = %100
  call void @ERR_put_error(i32 noundef 16, i32 noundef 0, i32 noundef 7, ptr noundef @.str, i32 noundef 1412)
  br label %215

121:                                              ; preds = %100
  %122 = load ptr, ptr %3, align 8, !tbaa !6
  %123 = getelementptr inbounds nuw %struct.ssl_st, ptr %122, i32 0, i32 10
  %124 = load ptr, ptr %123, align 8, !tbaa !49
  %125 = getelementptr inbounds nuw %struct.buf_mem_st, ptr %124, i32 0, i32 1
  %126 = load ptr, ptr %125, align 8, !tbaa !95
  %127 = load ptr, ptr %3, align 8, !tbaa !6
  %128 = getelementptr inbounds nuw %struct.ssl_st, ptr %127, i32 0, i32 3
  %129 = load ptr, ptr %128, align 8, !tbaa !76
  %130 = getelementptr inbounds nuw %struct.ssl_protocol_method_st, ptr %129, i32 0, i32 12
  %131 = load i32, ptr %130, align 8, !tbaa !137
  %132 = zext i32 %131 to i64
  %133 = getelementptr inbounds nuw i8, ptr %126, i64 %132
  %134 = load i32, ptr %10, align 4, !tbaa !14
  %135 = sext i32 %134 to i64
  %136 = getelementptr inbounds i8, ptr %133, i64 %135
  store ptr %136, ptr %4, align 8, !tbaa !89
  %137 = load i32, ptr %7, align 4, !tbaa !14
  %138 = ashr i32 %137, 8
  %139 = and i32 %138, 255
  %140 = trunc i32 %139 to i8
  %141 = load ptr, ptr %4, align 8, !tbaa !89
  %142 = getelementptr inbounds i8, ptr %141, i64 0
  store i8 %140, ptr %142, align 1, !tbaa !90
  %143 = load i32, ptr %7, align 4, !tbaa !14
  %144 = and i32 %143, 255
  %145 = trunc i32 %144 to i8
  %146 = load ptr, ptr %4, align 8, !tbaa !89
  %147 = getelementptr inbounds i8, ptr %146, i64 1
  store i8 %145, ptr %147, align 1, !tbaa !90
  %148 = load ptr, ptr %4, align 8, !tbaa !89
  %149 = getelementptr inbounds i8, ptr %148, i64 2
  store ptr %149, ptr %4, align 8, !tbaa !89
  %150 = load ptr, ptr %12, align 8, !tbaa !152
  %151 = call i32 @i2d_X509_NAME(ptr noundef %150, ptr noundef %4)
  %152 = load i32, ptr %7, align 4, !tbaa !14
  %153 = add nsw i32 2, %152
  %154 = load i32, ptr %10, align 4, !tbaa !14
  %155 = add nsw i32 %154, %153
  store i32 %155, ptr %10, align 4, !tbaa !14
  %156 = load i32, ptr %7, align 4, !tbaa !14
  %157 = add nsw i32 2, %156
  %158 = load i32, ptr %8, align 4, !tbaa !14
  %159 = add nsw i32 %158, %157
  store i32 %159, ptr %8, align 4, !tbaa !14
  br label %160

160:                                              ; preds = %121
  %161 = load i64, ptr %6, align 8, !tbaa !91
  %162 = add i64 %161, 1
  store i64 %162, ptr %6, align 8, !tbaa !91
  br label %95, !llvm.loop !154

163:                                              ; preds = %95
  br label %164

164:                                              ; preds = %163, %84
  %165 = load ptr, ptr %3, align 8, !tbaa !6
  %166 = getelementptr inbounds nuw %struct.ssl_st, ptr %165, i32 0, i32 10
  %167 = load ptr, ptr %166, align 8, !tbaa !49
  %168 = getelementptr inbounds nuw %struct.buf_mem_st, ptr %167, i32 0, i32 1
  %169 = load ptr, ptr %168, align 8, !tbaa !95
  %170 = load ptr, ptr %3, align 8, !tbaa !6
  %171 = getelementptr inbounds nuw %struct.ssl_st, ptr %170, i32 0, i32 3
  %172 = load ptr, ptr %171, align 8, !tbaa !76
  %173 = getelementptr inbounds nuw %struct.ssl_protocol_method_st, ptr %172, i32 0, i32 12
  %174 = load i32, ptr %173, align 8, !tbaa !137
  %175 = zext i32 %174 to i64
  %176 = getelementptr inbounds nuw i8, ptr %169, i64 %175
  %177 = load i32, ptr %9, align 4, !tbaa !14
  %178 = sext i32 %177 to i64
  %179 = getelementptr inbounds i8, ptr %176, i64 %178
  store ptr %179, ptr %4, align 8, !tbaa !89
  %180 = load i32, ptr %8, align 4, !tbaa !14
  %181 = ashr i32 %180, 8
  %182 = and i32 %181, 255
  %183 = trunc i32 %182 to i8
  %184 = load ptr, ptr %4, align 8, !tbaa !89
  %185 = getelementptr inbounds i8, ptr %184, i64 0
  store i8 %183, ptr %185, align 1, !tbaa !90
  %186 = load i32, ptr %8, align 4, !tbaa !14
  %187 = and i32 %186, 255
  %188 = trunc i32 %187 to i8
  %189 = load ptr, ptr %4, align 8, !tbaa !89
  %190 = getelementptr inbounds i8, ptr %189, i64 1
  store i8 %188, ptr %190, align 1, !tbaa !90
  %191 = load ptr, ptr %4, align 8, !tbaa !89
  %192 = getelementptr inbounds i8, ptr %191, i64 2
  store ptr %192, ptr %4, align 8, !tbaa !89
  %193 = load ptr, ptr %3, align 8, !tbaa !6
  %194 = getelementptr inbounds nuw %struct.ssl_st, ptr %193, i32 0, i32 3
  %195 = load ptr, ptr %194, align 8, !tbaa !76
  %196 = getelementptr inbounds nuw %struct.ssl_protocol_method_st, ptr %195, i32 0, i32 13
  %197 = load ptr, ptr %196, align 8, !tbaa !138
  %198 = load ptr, ptr %3, align 8, !tbaa !6
  %199 = load i32, ptr %10, align 4, !tbaa !14
  %200 = sext i32 %199 to i64
  %201 = call i32 %197(ptr noundef %198, i32 noundef 13, i64 noundef %200)
  %202 = icmp ne i32 %201, 0
  br i1 %202, label %204, label %203

203:                                              ; preds = %164
  br label %215

204:                                              ; preds = %164
  %205 = load ptr, ptr %3, align 8, !tbaa !6
  %206 = getelementptr inbounds nuw %struct.ssl_st, ptr %205, i32 0, i32 9
  store i32 8545, ptr %206, align 4, !tbaa !48
  br label %207

207:                                              ; preds = %204, %1
  %208 = load ptr, ptr %3, align 8, !tbaa !6
  %209 = getelementptr inbounds nuw %struct.ssl_st, ptr %208, i32 0, i32 3
  %210 = load ptr, ptr %209, align 8, !tbaa !76
  %211 = getelementptr inbounds nuw %struct.ssl_protocol_method_st, ptr %210, i32 0, i32 14
  %212 = load ptr, ptr %211, align 8, !tbaa !135
  %213 = load ptr, ptr %3, align 8, !tbaa !6
  %214 = call i32 %212(ptr noundef %213)
  store i32 %214, ptr %2, align 4
  store i32 1, ptr %15, align 4
  br label %216

215:                                              ; preds = %203, %120
  store i32 -1, ptr %2, align 4
  store i32 1, ptr %15, align 4
  br label %216

216:                                              ; preds = %215, %207
  call void @llvm.lifetime.end.p0(i64 8, ptr %13) #9
  call void @llvm.lifetime.end.p0(i64 8, ptr %12) #9
  call void @llvm.lifetime.end.p0(i64 8, ptr %11) #9
  call void @llvm.lifetime.end.p0(i64 4, ptr %10) #9
  call void @llvm.lifetime.end.p0(i64 4, ptr %9) #9
  call void @llvm.lifetime.end.p0(i64 4, ptr %8) #9
  call void @llvm.lifetime.end.p0(i64 4, ptr %7) #9
  call void @llvm.lifetime.end.p0(i64 8, ptr %6) #9
  call void @llvm.lifetime.end.p0(i64 8, ptr %5) #9
  call void @llvm.lifetime.end.p0(i64 8, ptr %4) #9
  %217 = load i32, ptr %2, align 4
  ret i32 %217
}