; Function Attrs: nounwind uwtable
define hidden i32 @ssl3_send_certificate_request(ptr noundef %0) local_unnamed_addr #0 {
  %2 = alloca ptr, align 8
  %3 = alloca ptr, align 8
  call void @llvm.lifetime.start.p0(i64 8, ptr nonnull %2) #10
  %4 = getelementptr inbounds nuw i8, ptr %0, i64 52
  %5 = load i32, ptr %4, align 4, !tbaa !43
  %6 = icmp eq i32 %5, 8544
  br i1 %6, label %7, label %104

7:                                                ; preds = %1
  %8 = getelementptr inbounds nuw i8, ptr %0, i64 56
  %9 = load ptr, ptr %8, align 8, !tbaa !44
  %10 = getelementptr inbounds nuw i8, ptr %9, i64 8
  %11 = load ptr, ptr %10, align 8, !tbaa !90
  %12 = getelementptr inbounds nuw i8, ptr %0, i64 8
  %13 = load ptr, ptr %12, align 8, !tbaa !64
  %14 = getelementptr inbounds nuw i8, ptr %13, i64 96
  %15 = load i32, ptr %14, align 8, !tbaa !132
  %16 = zext i32 %15 to i64
  %17 = getelementptr inbounds nuw i8, ptr %11, i64 %16
  %18 = getelementptr inbounds nuw i8, ptr %17, i64 1
  %19 = tail call i32 @ssl3_get_req_cert_type(ptr noundef nonnull %0, ptr noundef nonnull %18) #10
  %20 = trunc i32 %19 to i8
  store i8 %20, ptr %17, align 1, !tbaa !86
  %21 = sext i32 %19 to i64
  %22 = getelementptr inbounds i8, ptr %18, i64 %21
  %23 = add nsw i32 %19, 1
  %24 = tail call zeroext i16 @ssl3_protocol_version(ptr noundef nonnull %0) #10
  %25 = icmp ugt i16 %24, 770
  br i1 %25, label %26, label %39

26:                                               ; preds = %7
  call void @llvm.lifetime.start.p0(i64 8, ptr nonnull %3) #10
  %27 = call i64 @tls12_get_psigalgs(ptr noundef nonnull %0, ptr noundef nonnull %3) #10
  %28 = trunc i64 %27 to i32
  %29 = lshr i64 %27, 8
  %30 = trunc i64 %29 to i8
  store i8 %30, ptr %22, align 1, !tbaa !86
  %31 = trunc i64 %27 to i8
  %32 = getelementptr inbounds nuw i8, ptr %22, i64 1
  store i8 %31, ptr %32, align 1, !tbaa !86
  %33 = getelementptr inbounds nuw i8, ptr %22, i64 2
  %34 = load ptr, ptr %3, align 8, !tbaa !143
  %sext = shl i64 %27, 32
  %35 = ashr exact i64 %sext, 32
  call void @llvm.memcpy.p0.p0.i64(ptr nonnull align 1 %33, ptr align 1 %34, i64 %35, i1 false)
  %36 = getelementptr inbounds i8, ptr %33, i64 %35
  %37 = add i32 %19, 3
  %38 = add i32 %37, %28
  call void @llvm.lifetime.end.p0(i64 8, ptr nonnull %3) #10
  br label %39

39:                                               ; preds = %26, %7
  %40 = phi ptr [ %36, %26 ], [ %22, %7 ]
  %.053 = phi i32 [ %38, %26 ], [ %23, %7 ]
  %41 = getelementptr inbounds nuw i8, ptr %40, i64 2
  store ptr %41, ptr %2, align 8, !tbaa !143
  %42 = add nsw i32 %.053, 2
  %43 = call ptr @SSL_get_client_CA_list(ptr noundef nonnull %0) #10
  %.not = icmp eq ptr %43, null
  br i1 %.not, label %.loopexit, label %.preheader

.preheader:                                       ; preds = %39
  %44 = call i64 @sk_num(ptr noundef nonnull %43) #10
  %.not65 = icmp eq i64 %44, 0
  br i1 %.not65, label %.loopexit, label %.lr.ph

.lr.ph:                                           ; preds = %.preheader, %56
  %.05263 = phi i64 [ %78, %56 ], [ 0, %.preheader ]
  %.262 = phi i32 [ %76, %56 ], [ %42, %.preheader ]
  %.15561 = phi i32 [ %77, %56 ], [ 0, %.preheader ]
  %45 = call ptr @sk_value(ptr noundef nonnull %43, i64 noundef %.05263) #10
  %46 = call i32 @i2d_X509_NAME(ptr noundef %45, ptr noundef null) #10
  %47 = load ptr, ptr %12, align 8, !tbaa !64
  %48 = getelementptr inbounds nuw i8, ptr %47, i64 96
  %49 = load i32, ptr %48, align 8, !tbaa !132
  %50 = add i32 %.262, 2
  %51 = add i32 %50, %46
  %52 = add i32 %51, %49
  %53 = zext i32 %52 to i64
  %54 = call i64 @BUF_MEM_grow_clean(ptr noundef %9, i64 noundef %53) #10
  %.not58 = icmp eq i64 %54, 0
  br i1 %.not58, label %55, label %56

55:                                               ; preds = %.lr.ph
  call void @ERR_put_error(i32 noundef 16, i32 noundef 0, i32 noundef 7, ptr noundef nonnull @.str, i32 noundef 1412) #10
  br label %110

56:                                               ; preds = %.lr.ph
  %57 = load ptr, ptr %8, align 8, !tbaa !44
  %58 = getelementptr inbounds nuw i8, ptr %57, i64 8
  %59 = load ptr, ptr %58, align 8, !tbaa !90
  %60 = load ptr, ptr %12, align 8, !tbaa !64
  %61 = getelementptr inbounds nuw i8, ptr %60, i64 96
  %62 = load i32, ptr %61, align 8, !tbaa !132
  %63 = zext i32 %62 to i64
  %64 = getelementptr inbounds nuw i8, ptr %59, i64 %63
  %65 = sext i32 %.262 to i64
  %66 = getelementptr inbounds i8, ptr %64, i64 %65
  store ptr %66, ptr %2, align 8, !tbaa !143
  %67 = lshr i32 %46, 8
  %68 = trunc i32 %67 to i8
  store i8 %68, ptr %66, align 1, !tbaa !86
  %69 = trunc i32 %46 to i8
  %70 = load ptr, ptr %2, align 8, !tbaa !143
  %71 = getelementptr inbounds nuw i8, ptr %70, i64 1
  store i8 %69, ptr %71, align 1, !tbaa !86
  %72 = load ptr, ptr %2, align 8, !tbaa !143
  %73 = getelementptr inbounds nuw i8, ptr %72, i64 2
  store ptr %73, ptr %2, align 8, !tbaa !143
  %74 = call i32 @i2d_X509_NAME(ptr noundef %45, ptr noundef nonnull %2) #10
  %75 = add nsw i32 %46, 2
  %76 = add nsw i32 %75, %.262
  %77 = add nsw i32 %75, %.15561
  %78 = add nuw i64 %.05263, 1
  %79 = call i64 @sk_num(ptr noundef nonnull %43) #10
  %80 = icmp ult i64 %78, %79
  br i1 %80, label %.lr.ph, label %.loopexit, !llvm.loop !144

.loopexit:                                        ; preds = %56, %.preheader, %39
  %.054 = phi i32 [ 0, %39 ], [ 0, %.preheader ], [ %77, %56 ]
  %.1 = phi i32 [ %42, %39 ], [ %42, %.preheader ], [ %76, %56 ]
  %81 = load ptr, ptr %8, align 8, !tbaa !44
  %82 = getelementptr inbounds nuw i8, ptr %81, i64 8
  %83 = load ptr, ptr %82, align 8, !tbaa !90
  %84 = load ptr, ptr %12, align 8, !tbaa !64
  %85 = getelementptr inbounds nuw i8, ptr %84, i64 96
  %86 = load i32, ptr %85, align 8, !tbaa !132
  %87 = zext i32 %86 to i64
  %88 = getelementptr inbounds nuw i8, ptr %83, i64 %87
  %89 = sext i32 %.053 to i64
  %90 = getelementptr inbounds i8, ptr %88, i64 %89
  store ptr %90, ptr %2, align 8, !tbaa !143
  %91 = lshr i32 %.054, 8
  %92 = trunc i32 %91 to i8
  store i8 %92, ptr %90, align 1, !tbaa !86
  %93 = trunc i32 %.054 to i8
  %94 = load ptr, ptr %2, align 8, !tbaa !143
  %95 = getelementptr inbounds nuw i8, ptr %94, i64 1
  store i8 %93, ptr %95, align 1, !tbaa !86
  %96 = load ptr, ptr %2, align 8, !tbaa !143
  %97 = getelementptr inbounds nuw i8, ptr %96, i64 2
  store ptr %97, ptr %2, align 8, !tbaa !143
  %98 = load ptr, ptr %12, align 8, !tbaa !64
  %99 = getelementptr inbounds nuw i8, ptr %98, i64 104
  %100 = load ptr, ptr %99, align 8, !tbaa !71
  %101 = sext i32 %.1 to i64
  %102 = call i32 %100(ptr noundef nonnull %0, i32 noundef 13, i64 noundef %101) #10
  %.not57 = icmp eq i32 %102, 0
  br i1 %.not57, label %110, label %103

103:                                              ; preds = %.loopexit
  store i32 8545, ptr %4, align 4, !tbaa !43
  br label %104

104:                                              ; preds = %103, %1
  %105 = getelementptr inbounds nuw i8, ptr %0, i64 8
  %106 = load ptr, ptr %105, align 8, !tbaa !64
  %107 = getelementptr inbounds nuw i8, ptr %106, i64 112
  %108 = load ptr, ptr %107, align 8, !tbaa !65
  %109 = call i32 %108(ptr noundef nonnull %0) #10
  br label %110

110:                                              ; preds = %55, %.loopexit, %104
  %.0 = phi i32 [ %109, %104 ], [ -1, %.loopexit ], [ -1, %55 ]
  call void @llvm.lifetime.end.p0(i64 8, ptr nonnull %2) #10
  ret i32 %.0
}